target datalayout = "e-m:e-p270:32:32-p271:32:32-p272:64:64-i64:64-i128:128-f80:128-n8:16:32:64-S128"
target triple = "x86_64-pc-linux-gnu"

%struct.keytype_desc_st = type { ptr, ptr, ptr, i32, i32, ptr, ptr, ptr, ptr, ptr, ptr, ptr, ptr }
%struct.der2key_ctx_st = type { ptr, [256 x i8], ptr, i32, i8 }

; Function Attrs: nounwind uwtable
define internal i32 @rsa_check(ptr noundef %0, ptr noundef %1) #0 {
  %3 = alloca ptr, align 8
  %4 = alloca ptr, align 8
  %5 = alloca i32, align 4
  store ptr %0, ptr %3, align 8, !tbaa !3
  store ptr %1, ptr %4, align 8, !tbaa !7
  call void @llvm.lifetime.start.p0(i64 4, ptr %5) #6
  %6 = load ptr, ptr %3, align 8, !tbaa !3
  %7 = call i32 @RSA_test_flags(ptr noundef %6, i32 noundef 61440)
  switch i32 %7, label %24 [
    i32 0, label %8
    i32 4096, label %16
  ]

8:                                                ; preds = %2
  %9 = load ptr, ptr %4, align 8, !tbaa !7
  %10 = getelementptr inbounds nuw %struct.der2key_ctx_st, ptr %9, i32 0, i32 2
  %11 = load ptr, ptr %10, align 8, !tbaa !21
  %12 = getelementptr inbounds nuw %struct.keytype_desc_st, ptr %11, i32 0, i32 3
  %13 = load i32, ptr %12, align 8, !tbaa !50
  %14 = icmp eq i32 %13, 6
  %15 = zext i1 %14 to i32
  store i32 %15, ptr %5, align 4, !tbaa !9
  br label %25

16:                                               ; preds = %2
  %17 = load ptr, ptr %4, align 8, !tbaa !7
  %18 = getelementptr inbounds nuw %struct.der2key_ctx_st, ptr %17, i32 0, i32 2
  %19 = load ptr, ptr %18, align 8, !tbaa !21
  %20 = getelementptr inbounds nuw %struct.keytype_desc_st, ptr %19, i32 0, i32 3
  %21 = load i32, ptr %20, align 8, !tbaa !50
  %22 = icmp eq i32 %21, 912
  %23 = zext i1 %22 to i32
  store i32 %23, ptr %5, align 4, !tbaa !9
  br label %25

24:                                               ; preds = %2
  store i32 0, ptr %5, align 4, !tbaa !9
  br label %25

25:                                               ; preds = %24, %16, %8
  %26 = load i32, ptr %5, align 4, !tbaa !9
  %27 = icmp ne i32 %26, 0
  br i1 %27, label %28, label %32

28:                                               ; preds = %25
  %29 = load ptr, ptr %3, align 8, !tbaa !3
  %30 = call i32 @ossl_rsa_check_factors(ptr noundef %29)
  %31 = icmp ne i32 %30, 0
  br label %32

32:                                               ; preds = %28, %25
  %33 = phi i1 [ false, %25 ], [ %31, %28 ]
  %34 = zext i1 %33 to i32
  store i32 %34, ptr %5, align 4, !tbaa !9
  %35 = load i32, ptr %5, align 4, !tbaa !9
  call void @llvm.lifetime.end.p0(i64 4, ptr %5) #6
  ret i32 %35
}