; Function Attrs: nounwind uwtable
define internal range(i32 0, 2) i32 @rsa_check(ptr noundef %0, ptr noundef readonly captures(none) %1) #0 {
  %3 = tail call i32 @RSA_test_flags(ptr noundef %0, i32 noundef 61440) #7
  switch i32 %3, label %.critedge [
    i32 0, label %10
    i32 4096, label %4
  ]

4:                                                ; preds = %2
  %5 = getelementptr inbounds nuw i8, ptr %1, i64 264
  %6 = load ptr, ptr %5, align 8, !tbaa !11
  %7 = getelementptr inbounds nuw i8, ptr %6, i64 24
  %8 = load i32, ptr %7, align 8, !tbaa !41
  %9 = icmp eq i32 %8, 912
  br i1 %9, label %16, label %.critedge

10:                                               ; preds = %2
  %11 = getelementptr inbounds nuw i8, ptr %1, i64 264
  %12 = load ptr, ptr %11, align 8, !tbaa !11
  %13 = getelementptr inbounds nuw i8, ptr %12, i64 24
  %14 = load i32, ptr %13, align 8, !tbaa !41
  %15 = icmp eq i32 %14, 6
  br i1 %15, label %16, label %.critedge

16:                                               ; preds = %4, %10
  %17 = tail call i32 @ossl_rsa_check_factors(ptr noundef %0) #7
  %18 = icmp ne i32 %17, 0
  %19 = zext i1 %18 to i32
  br label %.critedge

.critedge:                                        ; preds = %4, %2, %16, %10
  %20 = phi i32 [ 0, %10 ], [ %19, %16 ], [ 0, %2 ], [ 0, %4 ]
  ret i32 %20
}